; Function Attrs: mustprogress nounwind willreturn uwtable
define internal fastcc i32 @Mini_AigAnd(ptr noundef captures(none) %0, i32 noundef %1, i32 noundef %2) unnamed_addr #5 {
  %4 = getelementptr inbounds nuw i8, ptr %0, i64 4
  %5 = load i32, ptr %4, align 4, !tbaa !13
  %6 = icmp slt i32 %1, %2
  %7 = add nsw i32 %5, 2
  %8 = load i32, ptr %0, align 8, !tbaa !44
  %9 = icmp sgt i32 %7, %8
  br i1 %6, label %10, label %33

10:                                               ; preds = %3
  br i1 %9, label %11, label %.Mini_AigGrow.exit13_crit_edge.i

.Mini_AigGrow.exit13_crit_edge.i:                 ; preds = %10
  %.phi.trans.insert.i = getelementptr inbounds nuw i8, ptr %0, i64 16
  %.pre.i = load ptr, ptr %.phi.trans.insert.i, align 8, !tbaa !3
  br label %Mini_AigPush.exit

11:                                               ; preds = %10
  %12 = icmp slt i32 %8, 255
  br i1 %12, label %13, label %21

13:                                               ; preds = %11
  %14 = getelementptr inbounds nuw i8, ptr %0, i64 16
  %15 = load ptr, ptr %14, align 8, !tbaa !3
  %.not9.i.i = icmp eq ptr %15, null
  br i1 %.not9.i.i, label %18, label %16

16:                                               ; preds = %13
  %17 = tail call dereferenceable_or_null(1020) ptr @realloc(ptr noundef nonnull %15, i64 noundef 1020) #27
  br label %Mini_AigGrow.exit.i

18:                                               ; preds = %13
  %19 = tail call noalias dereferenceable_or_null(1020) ptr @malloc(i64 noundef 1020) #26
  br label %Mini_AigGrow.exit.i

Mini_AigGrow.exit.i:                              ; preds = %18, %16
  %20 = phi ptr [ %17, %16 ], [ %19, %18 ]
  store ptr %20, ptr %14, align 8, !tbaa !3
  store i32 255, ptr %0, align 8, !tbaa !44
  br label %Mini_AigPush.exit

21:                                               ; preds = %11
  %22 = shl nuw nsw i32 %8, 1
  %23 = getelementptr inbounds nuw i8, ptr %0, i64 16
  %24 = load ptr, ptr %23, align 8, !tbaa !3
  %.not9.i12.i = icmp eq ptr %24, null
  %25 = zext nneg i32 %22 to i64
  %26 = shl nuw nsw i64 %25, 2
  br i1 %.not9.i12.i, label %29, label %27

27:                                               ; preds = %21
  %28 = tail call ptr @realloc(ptr noundef nonnull %24, i64 noundef %26) #27
  br label %31

29:                                               ; preds = %21
  %30 = tail call noalias ptr @malloc(i64 noundef %26) #26
  br label %31

31:                                               ; preds = %29, %27
  %32 = phi ptr [ %28, %27 ], [ %30, %29 ]
  store ptr %32, ptr %23, align 8, !tbaa !3
  store i32 %22, ptr %0, align 8, !tbaa !44
  br label %Mini_AigPush.exit

33:                                               ; preds = %3
  br i1 %9, label %34, label %.Mini_AigGrow.exit13_crit_edge.i11

.Mini_AigGrow.exit13_crit_edge.i11:               ; preds = %33
  %.phi.trans.insert.i12 = getelementptr inbounds nuw i8, ptr %0, i64 16
  %.pre.i13 = load ptr, ptr %.phi.trans.insert.i12, align 8, !tbaa !3
  br label %Mini_AigPush.exit

34:                                               ; preds = %33
  %35 = icmp slt i32 %8, 255
  br i1 %35, label %36, label %44

36:                                               ; preds = %34
  %37 = getelementptr inbounds nuw i8, ptr %0, i64 16
  %38 = load ptr, ptr %37, align 8, !tbaa !3
  %.not9.i.i15 = icmp eq ptr %38, null
  br i1 %.not9.i.i15, label %41, label %39

39:                                               ; preds = %36
  %40 = tail call dereferenceable_or_null(1020) ptr @realloc(ptr noundef nonnull %38, i64 noundef 1020) #27
  br label %Mini_AigGrow.exit.i16

41:                                               ; preds = %36
  %42 = tail call noalias dereferenceable_or_null(1020) ptr @malloc(i64 noundef 1020) #26
  br label %Mini_AigGrow.exit.i16

Mini_AigGrow.exit.i16:                            ; preds = %41, %39
  %43 = phi ptr [ %40, %39 ], [ %42, %41 ]
  store ptr %43, ptr %37, align 8, !tbaa !3
  store i32 255, ptr %0, align 8, !tbaa !44
  br label %Mini_AigPush.exit

44:                                               ; preds = %34
  %45 = shl nuw nsw i32 %8, 1
  %46 = getelementptr inbounds nuw i8, ptr %0, i64 16
  %47 = load ptr, ptr %46, align 8, !tbaa !3
  %.not9.i12.i14 = icmp eq ptr %47, null
  %48 = zext nneg i32 %45 to i64
  %49 = shl nuw nsw i64 %48, 2
  br i1 %.not9.i12.i14, label %52, label %50

50:                                               ; preds = %44
  %51 = tail call ptr @realloc(ptr noundef nonnull %47, i64 noundef %49) #27
  br label %54

52:                                               ; preds = %44
  %53 = tail call noalias ptr @malloc(i64 noundef %49) #26
  br label %54

54:                                               ; preds = %52, %50
  %55 = phi ptr [ %51, %50 ], [ %53, %52 ]
  store ptr %55, ptr %46, align 8, !tbaa !3
  store i32 %45, ptr %0, align 8, !tbaa !44
  br label %Mini_AigPush.exit

Mini_AigPush.exit:                                ; preds = %54, %Mini_AigGrow.exit.i16, %.Mini_AigGrow.exit13_crit_edge.i11, %31, %Mini_AigGrow.exit.i, %.Mini_AigGrow.exit13_crit_edge.i
  %.sink26 = phi ptr [ %.pre.i, %.Mini_AigGrow.exit13_crit_edge.i ], [ %32, %31 ], [ %20, %Mini_AigGrow.exit.i ], [ %.pre.i13, %.Mini_AigGrow.exit13_crit_edge.i11 ], [ %55, %54 ], [ %43, %Mini_AigGrow.exit.i16 ]
  %.sink24 = phi i32 [ %1, %.Mini_AigGrow.exit13_crit_edge.i ], [ %1, %31 ], [ %1, %Mini_AigGrow.exit.i ], [ %2, %.Mini_AigGrow.exit13_crit_edge.i11 ], [ %2, %54 ], [ %2, %Mini_AigGrow.exit.i16 ]
  %.sink = phi i32 [ %2, %.Mini_AigGrow.exit13_crit_edge.i ], [ %2, %31 ], [ %2, %Mini_AigGrow.exit.i ], [ %1, %.Mini_AigGrow.exit13_crit_edge.i11 ], [ %1, %54 ], [ %1, %Mini_AigGrow.exit.i16 ]
  %56 = load i32, ptr %4, align 4, !tbaa !13
  %57 = add nsw i32 %56, 1
  store i32 %57, ptr %4, align 4, !tbaa !13
  %58 = sext i32 %56 to i64
  %59 = getelementptr inbounds i32, ptr %.sink26, i64 %58
  store i32 %.sink24, ptr %59, align 4, !tbaa !10
  %60 = load i32, ptr %4, align 4, !tbaa !13
  %61 = add nsw i32 %60, 1
  store i32 %61, ptr %4, align 4, !tbaa !13
  %62 = sext i32 %60 to i64
  %63 = getelementptr inbounds i32, ptr %.sink26, i64 %62
  store i32 %.sink, ptr %63, align 4, !tbaa !10
  ret i32 %5
}